target datalayout = "e-m:e-p270:32:32-p271:32:32-p272:64:64-i64:64-i128:128-f80:128-n8:16:32:64-S128"
target triple = "x86_64-pc-linux-gnu"

%"class.Ipopt::Journalist" = type { %"class.Ipopt::ReferencedObject.base", %"class.std::vector" }
%"class.Ipopt::ReferencedObject.base" = type <{ ptr, i32 }>
%"class.std::vector" = type { %"struct.std::_Vector_base" }
%"struct.std::_Vector_base" = type { %"struct.std::_Vector_base<Ipopt::SmartPtr<Ipopt::Journal>, std::allocator<Ipopt::SmartPtr<Ipopt::Journal>>>::_Vector_impl" }
%"struct.std::_Vector_base<Ipopt::SmartPtr<Ipopt::Journal>, std::allocator<Ipopt::SmartPtr<Ipopt::Journal>>>::_Vector_impl" = type { %"struct.std::_Vector_base<Ipopt::SmartPtr<Ipopt::Journal>, std::allocator<Ipopt::SmartPtr<Ipopt::Journal>>>::_Vector_impl_data" }
%"struct.std::_Vector_base<Ipopt::SmartPtr<Ipopt::Journal>, std::allocator<Ipopt::SmartPtr<Ipopt::Journal>>>::_Vector_impl_data" = type { ptr, ptr, ptr }
%struct.__va_list_tag = type { i32, i32, ptr, ptr }
%"class.Ipopt::SmartPtr" = type { ptr }

@.str.2 = private unnamed_addr constant [3 x i8] c"  \00", align 1

; Function Attrs: mustprogress nounwind uwtable
define linkonce_odr noundef ptr @_ZNK5Ipopt8SmartPtrINS_7JournalEEptEv(ptr noundef nonnull align 8 dereferenceable(8) %0) #1 comdat align 2 {
  %2 = alloca ptr, align 8
  store ptr %0, ptr %2, align 8
  %3 = load ptr, ptr %2, align 8
  %4 = getelementptr inbounds %"class.Ipopt::SmartPtr", ptr %3, i32 0, i32 0
  %5 = load ptr, ptr %4, align 8
  ret ptr %5
}

; Function Attrs: mustprogress nounwind uwtable
define linkonce_odr noundef nonnull align 8 dereferenceable(8) ptr @_ZNKSt6vectorIN5Ipopt8SmartPtrINS0_7JournalEEESaIS3_EEixEm(ptr noundef nonnull align 8 dereferenceable(24) %0, i64 noundef %1) #1 comdat align 2 {
  %3 = alloca ptr, align 8
  %4 = alloca i64, align 8
  store ptr %0, ptr %3, align 8
  store i64 %1, ptr %4, align 8
  %5 = load ptr, ptr %3, align 8
  %6 = getelementptr inbounds %"struct.std::_Vector_base", ptr %5, i32 0, i32 0
  %7 = getelementptr inbounds %"struct.std::_Vector_base<Ipopt::SmartPtr<Ipopt::Journal>, std::allocator<Ipopt::SmartPtr<Ipopt::Journal>>>::_Vector_impl_data", ptr %6, i32 0, i32 0
  %8 = load ptr, ptr %7, align 8
  %9 = load i64, ptr %4, align 8
  %10 = getelementptr inbounds %"class.Ipopt::SmartPtr", ptr %8, i64 %9
  ret ptr %10
}

; Function Attrs: mustprogress nounwind uwtable
define linkonce_odr noundef i64 @_ZNKSt6vectorIN5Ipopt8SmartPtrINS0_7JournalEEESaIS3_EE4sizeEv(ptr noundef nonnull align 8 dereferenceable(24) %0) #1 comdat align 2 {
  %2 = alloca ptr, align 8
  store ptr %0, ptr %2, align 8
  %3 = load ptr, ptr %2, align 8
  %4 = getelementptr inbounds %"struct.std::_Vector_base", ptr %3, i32 0, i32 0
  %5 = getelementptr inbounds %"struct.std::_Vector_base<Ipopt::SmartPtr<Ipopt::Journal>, std::allocator<Ipopt::SmartPtr<Ipopt::Journal>>>::_Vector_impl_data", ptr %4, i32 0, i32 1
  %6 = load ptr, ptr %5, align 8
  %7 = getelementptr inbounds %"struct.std::_Vector_base", ptr %3, i32 0, i32 0
  %8 = getelementptr inbounds %"struct.std::_Vector_base<Ipopt::SmartPtr<Ipopt::Journal>, std::allocator<Ipopt::SmartPtr<Ipopt::Journal>>>::_Vector_impl_data", ptr %7, i32 0, i32 0
  %9 = load ptr, ptr %8, align 8
  %10 = ptrtoint ptr %6 to i64
  %11 = ptrtoint ptr %9 to i64
  %12 = sub i64 %10, %11
  %13 = sdiv exact i64 %12, 8
  ret i64 %13
}

; Function Attrs: mustprogress uwtable
define void @_ZNK5Ipopt10Journalist15VPrintfIndentedENS_13EJournalLevelENS_16EJournalCategoryEiPKcP13__va_list_tag(ptr noundef nonnull align 8 dereferenceable(40) %0, i32 noundef %1, i32 noundef %2, i32 noundef %3, ptr noundef %4, ptr noundef %5) unnamed_addr #0 align 2 {
  %7 = alloca ptr, align 8
  %8 = alloca i32, align 4
  %9 = alloca i32, align 4
  %10 = alloca i32, align 4
  %11 = alloca ptr, align 8
  %12 = alloca ptr, align 8
  %13 = alloca i32, align 4
  %14 = alloca i32, align 4
  %15 = alloca [1 x %struct.__va_list_tag], align 16
  store ptr %0, ptr %7, align 8
  store i32 %1, ptr %8, align 4
  store i32 %2, ptr %9, align 4
  store i32 %3, ptr %10, align 4
  store ptr %4, ptr %11, align 8
  store ptr %5, ptr %12, align 8
  %16 = load ptr, ptr %7, align 8
  store i32 0, ptr %13, align 4
  br label %17

17:                                               ; preds = %71, %6
  %18 = load i32, ptr %13, align 4
  %19 = getelementptr inbounds %"class.Ipopt::Journalist", ptr %16, i32 0, i32 1
  %20 = call noundef i64 @_ZNKSt6vectorIN5Ipopt8SmartPtrINS0_7JournalEEESaIS3_EE4sizeEv(ptr noundef nonnull align 8 dereferenceable(24) %19) #11
  %21 = trunc i64 %20 to i32
  %22 = icmp slt i32 %18, %21
  br i1 %22, label %23, label %74

23:                                               ; preds = %17
  %24 = getelementptr inbounds %"class.Ipopt::Journalist", ptr %16, i32 0, i32 1
  %25 = load i32, ptr %13, align 4
  %26 = sext i32 %25 to i64
  %27 = call noundef nonnull align 8 dereferenceable(8) ptr @_ZNKSt6vectorIN5Ipopt8SmartPtrINS0_7JournalEEESaIS3_EEixEm(ptr noundef nonnull align 8 dereferenceable(24) %24, i64 noundef %26) #11
  %28 = call noundef ptr @_ZNK5Ipopt8SmartPtrINS_7JournalEEptEv(ptr noundef nonnull align 8 dereferenceable(8) %27)
  %29 = load i32, ptr %9, align 4
  %30 = load i32, ptr %8, align 4
  %31 = load ptr, ptr %28, align 8
  %32 = getelementptr inbounds ptr, ptr %31, i64 5
  %33 = load ptr, ptr %32, align 8
  %34 = call noundef zeroext i1 %33(ptr noundef nonnull align 8 dereferenceable(176) %28, i32 noundef %29, i32 noundef %30)
  br i1 %34, label %35, label %70

35:                                               ; preds = %23
  store i32 0, ptr %14, align 4
  br label %36

36:                                               ; preds = %51, %35
  %37 = load i32, ptr %14, align 4
  %38 = load i32, ptr %10, align 4
  %39 = icmp slt i32 %37, %38
  br i1 %39, label %40, label %54

40:                                               ; preds = %36
  %41 = getelementptr inbounds %"class.Ipopt::Journalist", ptr %16, i32 0, i32 1
  %42 = load i32, ptr %13, align 4
  %43 = sext i32 %42 to i64
  %44 = call noundef nonnull align 8 dereferenceable(8) ptr @_ZNKSt6vectorIN5Ipopt8SmartPtrINS0_7JournalEEESaIS3_EEixEm(ptr noundef nonnull align 8 dereferenceable(24) %41, i64 noundef %43) #11
  %45 = call noundef ptr @_ZNK5Ipopt8SmartPtrINS_7JournalEEptEv(ptr noundef nonnull align 8 dereferenceable(8) %44)
  %46 = load i32, ptr %9, align 4
  %47 = load i32, ptr %8, align 4
  %48 = load ptr, ptr %45, align 8
  %49 = getelementptr inbounds ptr, ptr %48, i64 6
  %50 = load ptr, ptr %49, align 8
  call void %50(ptr noundef nonnull align 8 dereferenceable(176) %45, i32 noundef %46, i32 noundef %47, ptr noundef @.str.2)
  br label %51

51:                                               ; preds = %40
  %52 = load i32, ptr %14, align 4
  %53 = add nsw i32 %52, 1
  store i32 %53, ptr %14, align 4
  br label %36, !llvm.loop !9

54:                                               ; preds = %36
  %55 = getelementptr inbounds [1 x %struct.__va_list_tag], ptr %15, i64 0, i64 0
  %56 = load ptr, ptr %12, align 8
  call void @llvm.va_copy(ptr %55, ptr %56)
  %57 = getelementptr inbounds %"class.Ipopt::Journalist", ptr %16, i32 0, i32 1
  %58 = load i32, ptr %13, align 4
  %59 = sext i32 %58 to i64
  %60 = call noundef nonnull align 8 dereferenceable(8) ptr @_ZNKSt6vectorIN5Ipopt8SmartPtrINS0_7JournalEEESaIS3_EEixEm(ptr noundef nonnull align 8 dereferenceable(24) %57, i64 noundef %59) #11
  %61 = call noundef ptr @_ZNK5Ipopt8SmartPtrINS_7JournalEEptEv(ptr noundef nonnull align 8 dereferenceable(8) %60)
  %62 = load i32, ptr %9, align 4
  %63 = load i32, ptr %8, align 4
  %64 = load ptr, ptr %11, align 8
  %65 = getelementptr inbounds [1 x %struct.__va_list_tag], ptr %15, i64 0, i64 0
  %66 = load ptr, ptr %61, align 8
  %67 = getelementptr inbounds ptr, ptr %66, i64 7
  %68 = load ptr, ptr %67, align 8
  call void %68(ptr noundef nonnull align 8 dereferenceable(176) %61, i32 noundef %62, i32 noundef %63, ptr noundef %64, ptr noundef %65)
  %69 = getelementptr inbounds [1 x %struct.__va_list_tag], ptr %15, i64 0, i64 0
  call void @llvm.va_end(ptr %69)
  br label %70

70:                                               ; preds = %54, %23
  br label %71

71:                                               ; preds = %70
  %72 = load i32, ptr %13, align 4
  %73 = add nsw i32 %72, 1
  store i32 %73, ptr %13, align 4
  br label %17, !llvm.loop !10

74:                                               ; preds = %17
  ret void
}