; Function Attrs: mustprogress uwtable
define void @_ZNK5Ipopt10Journalist15VPrintfIndentedENS_13EJournalLevelENS_16EJournalCategoryEiPKcP13__va_list_tag(ptr nocapture noundef nonnull readonly align 8 dereferenceable(40) %0, i32 noundef %1, i32 noundef %2, i32 noundef %3, ptr noundef %4, ptr noundef %5) unnamed_addr #3 align 2 {
  %7 = alloca [1 x %struct.__va_list_tag], align 16
  %8 = getelementptr inbounds i8, ptr %0, i64 16
  %9 = getelementptr inbounds i8, ptr %0, i64 24
  %10 = load ptr, ptr %9, align 8
  %11 = load ptr, ptr %8, align 8
  %12 = ptrtoint ptr %10 to i64
  %13 = ptrtoint ptr %11 to i64
  %14 = sub i64 %12, %13
  %15 = lshr exact i64 %14, 3
  %16 = trunc i64 %15 to i32
  %17 = icmp sgt i32 %16, 0
  br i1 %17, label %.lr.ph20, label %._crit_edge21

.lr.ph20:                                         ; preds = %6
  %18 = icmp sgt i32 %3, 0
  br i1 %18, label %.lr.ph20.split.us, label %.lr.ph20.split

.lr.ph20.split.us:                                ; preds = %.lr.ph20, %26
  %indvars.iv24 = phi i64 [ %indvars.iv.next25, %26 ], [ 0, %.lr.ph20 ]
  %19 = phi ptr [ %28, %26 ], [ %11, %.lr.ph20 ]
  %20 = getelementptr inbounds %"class.Ipopt::SmartPtr", ptr %19, i64 %indvars.iv24
  %21 = load ptr, ptr %20, align 8
  %22 = load ptr, ptr %21, align 8
  %23 = getelementptr inbounds i8, ptr %22, i64 40
  %24 = load ptr, ptr %23, align 8
  %25 = call noundef zeroext i1 %24(ptr noundef nonnull align 8 dereferenceable(176) %21, i32 noundef %2, i32 noundef %1)
  br i1 %25, label %.preheader.us, label %26

26:                                               ; preds = %._crit_edge.us, %.lr.ph20.split.us
  %indvars.iv.next25 = add nuw nsw i64 %indvars.iv24, 1
  %27 = load ptr, ptr %9, align 8
  %28 = load ptr, ptr %8, align 8
  %29 = ptrtoint ptr %27 to i64
  %30 = ptrtoint ptr %28 to i64
  %31 = sub i64 %29, %30
  %sext27 = shl i64 %31, 29
  %32 = ashr i64 %sext27, 32
  %33 = icmp slt i64 %indvars.iv.next25, %32
  br i1 %33, label %.lr.ph20.split.us, label %._crit_edge21, !llvm.loop !9

.preheader.us:                                    ; preds = %.lr.ph20.split.us, %.preheader.us
  %.017.us = phi i32 [ %40, %.preheader.us ], [ 0, %.lr.ph20.split.us ]
  %34 = load ptr, ptr %8, align 8
  %35 = getelementptr inbounds %"class.Ipopt::SmartPtr", ptr %34, i64 %indvars.iv24
  %36 = load ptr, ptr %35, align 8
  %37 = load ptr, ptr %36, align 8
  %38 = getelementptr inbounds i8, ptr %37, i64 48
  %39 = load ptr, ptr %38, align 8
  call void %39(ptr noundef nonnull align 8 dereferenceable(176) %36, i32 noundef %2, i32 noundef %1, ptr noundef nonnull @.str.2)
  %40 = add nuw nsw i32 %.017.us, 1
  %exitcond.not = icmp eq i32 %40, %3
  br i1 %exitcond.not, label %._crit_edge.us, label %.preheader.us, !llvm.loop !10

._crit_edge.us:                                   ; preds = %.preheader.us
  call void @llvm.va_copy(ptr nonnull %7, ptr %5)
  %41 = load ptr, ptr %8, align 8
  %42 = getelementptr inbounds %"class.Ipopt::SmartPtr", ptr %41, i64 %indvars.iv24
  %43 = load ptr, ptr %42, align 8
  %44 = load ptr, ptr %43, align 8
  %45 = getelementptr inbounds i8, ptr %44, i64 56
  %46 = load ptr, ptr %45, align 8
  call void %46(ptr noundef nonnull align 8 dereferenceable(176) %43, i32 noundef %2, i32 noundef %1, ptr noundef %4, ptr noundef nonnull %7)
  call void @llvm.va_end(ptr nonnull %7)
  br label %26

.lr.ph20.split:                                   ; preds = %.lr.ph20, %60
  %indvars.iv = phi i64 [ %indvars.iv.next, %60 ], [ 0, %.lr.ph20 ]
  %47 = phi ptr [ %62, %60 ], [ %11, %.lr.ph20 ]
  %48 = getelementptr inbounds %"class.Ipopt::SmartPtr", ptr %47, i64 %indvars.iv
  %49 = load ptr, ptr %48, align 8
  %50 = load ptr, ptr %49, align 8
  %51 = getelementptr inbounds i8, ptr %50, i64 40
  %52 = load ptr, ptr %51, align 8
  %53 = call noundef zeroext i1 %52(ptr noundef nonnull align 8 dereferenceable(176) %49, i32 noundef %2, i32 noundef %1)
  br i1 %53, label %.preheader, label %60

.preheader:                                       ; preds = %.lr.ph20.split
  call void @llvm.va_copy(ptr nonnull %7, ptr %5)
  %54 = load ptr, ptr %8, align 8
  %55 = getelementptr inbounds %"class.Ipopt::SmartPtr", ptr %54, i64 %indvars.iv
  %56 = load ptr, ptr %55, align 8
  %57 = load ptr, ptr %56, align 8
  %58 = getelementptr inbounds i8, ptr %57, i64 56
  %59 = load ptr, ptr %58, align 8
  call void %59(ptr noundef nonnull align 8 dereferenceable(176) %56, i32 noundef %2, i32 noundef %1, ptr noundef %4, ptr noundef nonnull %7)
  call void @llvm.va_end(ptr nonnull %7)
  br label %60

60:                                               ; preds = %.lr.ph20.split, %.preheader
  %indvars.iv.next = add nuw nsw i64 %indvars.iv, 1
  %61 = load ptr, ptr %9, align 8
  %62 = load ptr, ptr %8, align 8
  %63 = ptrtoint ptr %61 to i64
  %64 = ptrtoint ptr %62 to i64
  %65 = sub i64 %63, %64
  %sext = shl i64 %65, 29
  %66 = ashr i64 %sext, 32
  %67 = icmp slt i64 %indvars.iv.next, %66
  br i1 %67, label %.lr.ph20.split, label %._crit_edge21, !llvm.loop !9

._crit_edge21:                                    ; preds = %60, %26, %6
  ret void
}